target datalayout = "e-m:e-p270:32:32-p271:32:32-p272:64:64-i64:64-i128:128-f80:128-n8:16:32:64-S128"
target triple = "x86_64-pc-linux-gnu"

%"class.icu_77::StringEnumeration" = type <{ %"class.icu_77::UObject", %"class.icu_77::UnicodeString", [32 x i8], ptr, i32, [4 x i8] }>
%"class.icu_77::UObject" = type { ptr }
%"class.icu_77::UnicodeString" = type { %"class.icu_77::Replaceable", %"union.icu_77::UnicodeString::StackBufferOrFields" }
%"class.icu_77::Replaceable" = type { %"class.icu_77::UObject" }
%"union.icu_77::UnicodeString::StackBufferOrFields" = type { %struct.anon.0, [32 x i8] }
%struct.anon.0 = type { i16, i32, i32, ptr }

; Function Attrs: inlinehint mustprogress nounwind uwtable
define internal noundef signext i8 @_ZL9U_SUCCESS10UErrorCode(i32 noundef %0) #1 {
  %2 = alloca i32, align 4
  store i32 %0, ptr %2, align 4, !tbaa !26
  %3 = load i32, ptr %2, align 4, !tbaa !26
  %4 = icmp sle i32 %3, 0
  %5 = zext i1 %4 to i8
  ret i8 %5
}

; Function Attrs: mustprogress uwtable
define void @_ZN6icu_7717StringEnumeration19ensureCharsCapacityEiR10UErrorCode(ptr noundef nonnull align 8 dereferenceable(116) %0, i32 noundef %1, ptr noundef nonnull align 4 dereferenceable(4) %2) #0 align 2 {
  %4 = alloca ptr, align 8
  %5 = alloca i32, align 4
  %6 = alloca ptr, align 8
  store ptr %0, ptr %4, align 8, !tbaa !3
  store i32 %1, ptr %5, align 4, !tbaa !28
  store ptr %2, ptr %6, align 8, !tbaa !25
  %7 = load ptr, ptr %4, align 8
  %8 = load ptr, ptr %6, align 8, !tbaa !25
  %9 = load i32, ptr %8, align 4, !tbaa !26
  %10 = call noundef signext i8 @_ZL9U_SUCCESS10UErrorCode(i32 noundef %9)
  %11 = icmp ne i8 %10, 0
  br i1 %11, label %12, label %60

12:                                               ; preds = %3
  %13 = load i32, ptr %5, align 4, !tbaa !28
  %14 = getelementptr inbounds nuw %"class.icu_77::StringEnumeration", ptr %7, i32 0, i32 4
  %15 = load i32, ptr %14, align 8, !tbaa !17
  %16 = icmp sgt i32 %13, %15
  br i1 %16, label %17, label %60

17:                                               ; preds = %12
  %18 = load i32, ptr %5, align 4, !tbaa !28
  %19 = getelementptr inbounds nuw %"class.icu_77::StringEnumeration", ptr %7, i32 0, i32 4
  %20 = load i32, ptr %19, align 8, !tbaa !17
  %21 = getelementptr inbounds nuw %"class.icu_77::StringEnumeration", ptr %7, i32 0, i32 4
  %22 = load i32, ptr %21, align 8, !tbaa !17
  %23 = sdiv i32 %22, 2
  %24 = add nsw i32 %20, %23
  %25 = icmp slt i32 %18, %24
  br i1 %25, label %26, label %33

26:                                               ; preds = %17
  %27 = getelementptr inbounds nuw %"class.icu_77::StringEnumeration", ptr %7, i32 0, i32 4
  %28 = load i32, ptr %27, align 8, !tbaa !17
  %29 = getelementptr inbounds nuw %"class.icu_77::StringEnumeration", ptr %7, i32 0, i32 4
  %30 = load i32, ptr %29, align 8, !tbaa !17
  %31 = sdiv i32 %30, 2
  %32 = add nsw i32 %28, %31
  store i32 %32, ptr %5, align 4, !tbaa !28
  br label %33

33:                                               ; preds = %26, %17
  %34 = getelementptr inbounds nuw %"class.icu_77::StringEnumeration", ptr %7, i32 0, i32 3
  %35 = load ptr, ptr %34, align 8, !tbaa !10
  %36 = getelementptr inbounds nuw %"class.icu_77::StringEnumeration", ptr %7, i32 0, i32 2
  %37 = getelementptr inbounds [32 x i8], ptr %36, i64 0, i64 0
  %38 = icmp ne ptr %35, %37
  br i1 %38, label %39, label %42

39:                                               ; preds = %33
  %40 = getelementptr inbounds nuw %"class.icu_77::StringEnumeration", ptr %7, i32 0, i32 3
  %41 = load ptr, ptr %40, align 8, !tbaa !10
  call void @uprv_free_77(ptr noundef %41)
  br label %42

42:                                               ; preds = %39, %33
  %43 = load i32, ptr %5, align 4, !tbaa !28
  %44 = sext i32 %43 to i64
  %45 = call noalias ptr @uprv_malloc_77(i64 noundef %44) #14
  %46 = getelementptr inbounds nuw %"class.icu_77::StringEnumeration", ptr %7, i32 0, i32 3
  store ptr %45, ptr %46, align 8, !tbaa !10
  %47 = getelementptr inbounds nuw %"class.icu_77::StringEnumeration", ptr %7, i32 0, i32 3
  %48 = load ptr, ptr %47, align 8, !tbaa !10
  %49 = icmp eq ptr %48, null
  br i1 %49, label %50, label %56

50:                                               ; preds = %42
  %51 = getelementptr inbounds nuw %"class.icu_77::StringEnumeration", ptr %7, i32 0, i32 2
  %52 = getelementptr inbounds [32 x i8], ptr %51, i64 0, i64 0
  %53 = getelementptr inbounds nuw %"class.icu_77::StringEnumeration", ptr %7, i32 0, i32 3
  store ptr %52, ptr %53, align 8, !tbaa !10
  %54 = getelementptr inbounds nuw %"class.icu_77::StringEnumeration", ptr %7, i32 0, i32 4
  store i32 32, ptr %54, align 8, !tbaa !17
  %55 = load ptr, ptr %6, align 8, !tbaa !25
  store i32 7, ptr %55, align 4, !tbaa !26
  br label %59

56:                                               ; preds = %42
  %57 = load i32, ptr %5, align 4, !tbaa !28
  %58 = getelementptr inbounds nuw %"class.icu_77::StringEnumeration", ptr %7, i32 0, i32 4
  store i32 %57, ptr %58, align 8, !tbaa !17
  br label %59

59:                                               ; preds = %56, %50
  br label %60

60:                                               ; preds = %59, %12, %3
  ret void
}