; Function Attrs: mustprogress uwtable
define void @_ZN6icu_7717StringEnumeration19ensureCharsCapacityEiR10UErrorCode(ptr noundef nonnull align 8 dereferenceable(116) %0, i32 noundef %1, ptr noundef nonnull align 4 captures(none) dereferenceable(4) %2) local_unnamed_addr #9 align 2 {
  %4 = load i32, ptr %2, align 4, !tbaa !17
  %5 = icmp sgt i32 %4, 0
  br i1 %5, label %23, label %6

6:                                                ; preds = %3
  %7 = getelementptr inbounds nuw i8, ptr %0, i64 112
  %8 = load i32, ptr %7, align 8, !tbaa !16
  %9 = icmp sgt i32 %1, %8
  br i1 %9, label %10, label %23

10:                                               ; preds = %6
  %11 = sdiv i32 %8, 2
  %12 = add nsw i32 %11, %8
  %spec.select = tail call i32 @llvm.smax.i32(i32 %1, i32 %12)
  %13 = getelementptr inbounds nuw i8, ptr %0, i64 104
  %14 = load ptr, ptr %13, align 8, !tbaa !8
  %15 = getelementptr inbounds nuw i8, ptr %0, i64 72
  %.not10 = icmp eq ptr %14, %15
  br i1 %.not10, label %17, label %16

16:                                               ; preds = %10
  tail call void @uprv_free_77(ptr noundef %14)
  br label %17

17:                                               ; preds = %16, %10
  %18 = sext i32 %spec.select to i64
  %19 = tail call noalias ptr @uprv_malloc_77(i64 noundef %18) #20
  store ptr %19, ptr %13, align 8, !tbaa !8
  %20 = icmp eq ptr %19, null
  br i1 %20, label %21, label %22

21:                                               ; preds = %17
  store ptr %15, ptr %13, align 8, !tbaa !8
  store i32 32, ptr %7, align 8, !tbaa !16
  store i32 7, ptr %2, align 4, !tbaa !17
  br label %23

22:                                               ; preds = %17
  store i32 %spec.select, ptr %7, align 8, !tbaa !16
  br label %23

23:                                               ; preds = %21, %22, %6, %3
  ret void
}